; Function Attrs: mustprogress uwtable
define hidden void @hb_ot_var_normalize_coords(ptr noundef %0, i32 noundef %1, ptr nocapture noundef readonly %2, ptr noundef %3) local_unnamed_addr #0 {
  %5 = getelementptr inbounds i8, ptr %0, i64 224
  %6 = tail call noundef ptr @_ZNK16hb_lazy_loader_tIN2OT4fvarE22hb_table_lazy_loader_tIS1_Lj18ELb1EE9hb_face_tLj18E9hb_blob_tE10get_storedEv(ptr noundef nonnull align 8 dereferenceable(8) %5)
  %7 = getelementptr inbounds i8, ptr %6, i64 16
  %8 = load ptr, ptr %7, align 8
  %9 = getelementptr inbounds i8, ptr %6, i64 24
  %10 = load i32, ptr %9, align 8
  %11 = icmp ult i32 %10, 16
  %spec.select.i.i.i.i.i = select i1 %11, ptr @_hb_NullPool, ptr %8
  %.not = icmp eq i32 %1, 0
  br i1 %.not, label %._crit_edge, label %.lr.ph.preheader

.lr.ph.preheader:                                 ; preds = %4
  %wide.trip.count = zext i32 %1 to i64
  br label %.lr.ph

.lr.ph:                                           ; preds = %.lr.ph.preheader, %.lr.ph
  %indvars.iv = phi i64 [ 0, %.lr.ph.preheader ], [ %indvars.iv.next, %.lr.ph ]
  %12 = getelementptr inbounds float, ptr %2, i64 %indvars.iv
  %13 = load float, ptr %12, align 4
  %14 = trunc nuw i64 %indvars.iv to i32
  %15 = tail call noundef i32 @_ZNK2OT4fvar20normalize_axis_valueEjf(ptr noundef nonnull align 1 dereferenceable(16) %spec.select.i.i.i.i.i, i32 noundef %14, float noundef %13)
  %16 = getelementptr inbounds i32, ptr %3, i64 %indvars.iv
  store i32 %15, ptr %16, align 4
  %indvars.iv.next = add nuw nsw i64 %indvars.iv, 1
  %exitcond.not = icmp eq i64 %indvars.iv.next, %wide.trip.count
  br i1 %exitcond.not, label %._crit_edge, label %.lr.ph, !llvm.loop !19

._crit_edge:                                      ; preds = %.lr.ph, %4
  %17 = getelementptr inbounds i8, ptr %0, i64 232
  %18 = tail call noundef ptr @_ZNK16hb_lazy_loader_tIN2OT4avarE22hb_table_lazy_loader_tIS1_Lj19ELb1EE9hb_face_tLj19E9hb_blob_tE10get_storedEv(ptr noundef nonnull align 8 dereferenceable(8) %17)
  %19 = getelementptr inbounds i8, ptr %18, i64 16
  %20 = load ptr, ptr %19, align 8
  %21 = getelementptr inbounds i8, ptr %18, i64 24
  %22 = load i32, ptr %21, align 8
  %23 = icmp ult i32 %22, 8
  %spec.select.i.i.i.i.i13 = select i1 %23, ptr @_hb_NullPool, ptr %20
  tail call void @_ZNK2OT4avar10map_coordsEPij(ptr noundef nonnull align 1 dereferenceable(14) %spec.select.i.i.i.i.i13, ptr noundef %3, i32 noundef %1)
  ret void
}